target datalayout = "e-m:e-p270:32:32-p271:32:32-p272:64:64-i64:64-i128:128-f80:128-n8:16:32:64-S128"
target triple = "x86_64-unknown-linux-gnu"

; Function Attrs: mustprogress nounwind uwtable
define linkonce_odr noundef i32 @_ZN8facebook5velox4bits17countLeadingZerosImEEiT_(i64 noundef %word) #3 comdat {
entry:
  %retval = alloca i32, align 4
  %word.addr = alloca i64, align 8
  store i64 %word, ptr %word.addr, align 8
  %0 = load i64, ptr %word.addr, align 8
  %cmp = icmp eq i64 %0, 0
  br i1 %cmp, label %if.then, label %if.end

if.then:                                          ; preds = %entry
  store i32 64, ptr %retval, align 4
  br label %return

if.end:                                           ; preds = %entry
  %1 = load i64, ptr %word.addr, align 8
  %2 = call i64 @llvm.ctlz.i64(i64 %1, i1 true)
  %cast = trunc i64 %2 to i32
  store i32 %cast, ptr %retval, align 4
  br label %return

return:                                           ; preds = %if.end, %if.then
  %3 = load i32, ptr %retval, align 4
  ret i32 %3
}

; Function Attrs: mustprogress uwtable
define noundef i64 @_ZN8facebook5velox6memory10MemoryPool13preferredSizeEm(ptr noundef nonnull align 8 dereferenceable(168) %this, i64 noundef %size) unnamed_addr #0 align 2 {
entry:
  %retval = alloca i64, align 8
  %this.addr = alloca ptr, align 8
  %size.addr = alloca i64, align 8
  %bits = alloca i32, align 4
  %lower = alloca i64, align 8
  store ptr %this, ptr %this.addr, align 8
  store i64 %size, ptr %size.addr, align 8
  %0 = load i64, ptr %size.addr, align 8
  %cmp = icmp ult i64 %0, 8
  br i1 %cmp, label %if.then, label %if.end

if.then:                                          ; preds = %entry
  store i64 8, ptr %retval, align 8
  br label %return

if.end:                                           ; preds = %entry
  %1 = load i64, ptr %size.addr, align 8
  %call = call noundef i32 @_ZN8facebook5velox4bits17countLeadingZerosImEEiT_(i64 noundef %1)
  %sub = sub nsw i32 63, %call
  store i32 %sub, ptr %bits, align 4
  %2 = load i32, ptr %bits, align 4
  %sh_prom = zext i32 %2 to i64
  %shl = shl i64 1, %sh_prom
  store i64 %shl, ptr %lower, align 8
  %3 = load i64, ptr %lower, align 8
  %4 = load i64, ptr %size.addr, align 8
  %cmp2 = icmp eq i64 %3, %4
  br i1 %cmp2, label %if.then3, label %if.end4

if.then3:                                         ; preds = %if.end
  %5 = load i64, ptr %size.addr, align 8
  store i64 %5, ptr %retval, align 8
  br label %return

if.end4:                                          ; preds = %if.end
  %6 = load i64, ptr %lower, align 8
  %7 = load i64, ptr %lower, align 8
  %div = udiv i64 %7, 2
  %add = add i64 %6, %div
  %8 = load i64, ptr %size.addr, align 8
  %cmp5 = icmp uge i64 %add, %8
  br i1 %cmp5, label %if.then6, label %if.end9

if.then6:                                         ; preds = %if.end4
  %9 = load i64, ptr %lower, align 8
  %10 = load i64, ptr %lower, align 8
  %div7 = udiv i64 %10, 2
  %add8 = add i64 %9, %div7
  store i64 %add8, ptr %retval, align 8
  br label %return

if.end9:                                          ; preds = %if.end4
  %11 = load i64, ptr %lower, align 8
  %mul = mul i64 %11, 2
  store i64 %mul, ptr %retval, align 8
  br label %return

return:                                           ; preds = %if.end9, %if.then6, %if.then3, %if.then
  %12 = load i64, ptr %retval, align 8
  ret i64 %12
}