; Function Attrs: mustprogress nofree norecurse nosync nounwind willreturn memory(none) uwtable
define noundef i64 @_ZN8facebook5velox6memory10MemoryPool13preferredSizeEm(ptr nocapture nonnull readnone align 8 %this, i64 noundef %size) unnamed_addr #7 align 2 {
entry:
  %cmp = icmp ult i64 %size, 8
  br i1 %cmp, label %return, label %if.end

if.end:                                           ; preds = %entry
  %0 = tail call i64 @llvm.ctlz.i64(i64 %size, i1 true), !range !30
  %sub = xor i64 %0, 63
  %shl = shl nuw i64 1, %sub
  %cmp2 = icmp eq i64 %shl, %size
  br i1 %cmp2, label %return, label %if.end4

if.end4:                                          ; preds = %if.end
  %div10 = lshr i64 %shl, 1
  %add = add nuw i64 %div10, %shl
  %cmp5.not = icmp ult i64 %add, %size
  %mul = shl i64 2, %sub
  %spec.select = select i1 %cmp5.not, i64 %mul, i64 %add
  br label %return

return:                                           ; preds = %if.end4, %if.end, %entry
  %retval.0 = phi i64 [ 8, %entry ], [ %size, %if.end ], [ %spec.select, %if.end4 ]
  ret i64 %retval.0
}